target datalayout = "e-m:e-p270:32:32-p271:32:32-p272:64:64-i64:64-i128:128-f80:128-n8:16:32:64-S128"
target triple = "x86_64-pc-linux-gnu"

%struct.tls12_lookup = type { i32, i32 }

@tls12_sig = internal constant [2 x %struct.tls12_lookup] [%struct.tls12_lookup { i32 6, i32 1 }, %struct.tls12_lookup { i32 408, i32 3 }], align 16
@tls12_md = internal constant [4 x %struct.tls12_lookup] [%struct.tls12_lookup { i32 64, i32 2 }, %struct.tls12_lookup { i32 672, i32 4 }, %struct.tls12_lookup { i32 673, i32 5 }, %struct.tls12_lookup { i32 674, i32 6 }], align 16

; Function Attrs: nounwind uwtable
define hidden i32 @tls12_get_sigid(i32 noundef %0) #0 {
  %2 = alloca i32, align 4
  store i32 %0, ptr %2, align 4, !tbaa !58
  %3 = load i32, ptr %2, align 4, !tbaa !58
  %4 = call i32 @tls12_find_id(i32 noundef %3, ptr noundef @tls12_sig, i64 noundef 2)
  ret i32 %4
}

; Function Attrs: nounwind uwtable
define internal i32 @tls12_find_id(i32 noundef %0, ptr noundef %1, i64 noundef %2) #0 {
  %4 = alloca i32, align 4
  %5 = alloca i32, align 4
  %6 = alloca ptr, align 8
  %7 = alloca i64, align 8
  %8 = alloca i64, align 8
  %9 = alloca i32, align 4
  store i32 %0, ptr %5, align 4, !tbaa !58
  store ptr %1, ptr %6, align 8, !tbaa !162
  store i64 %2, ptr %7, align 8, !tbaa !56
  call void @llvm.lifetime.start.p0(i64 8, ptr %8) #8
  store i64 0, ptr %8, align 8, !tbaa !56
  br label %10

10:                                               ; preds = %29, %3
  %11 = load i64, ptr %8, align 8, !tbaa !56
  %12 = load i64, ptr %7, align 8, !tbaa !56
  %13 = icmp ult i64 %11, %12
  br i1 %13, label %14, label %32

14:                                               ; preds = %10
  %15 = load ptr, ptr %6, align 8, !tbaa !162
  %16 = load i64, ptr %8, align 8, !tbaa !56
  %17 = getelementptr inbounds nuw %struct.tls12_lookup, ptr %15, i64 %16
  %18 = getelementptr inbounds nuw %struct.tls12_lookup, ptr %17, i32 0, i32 0
  %19 = load i32, ptr %18, align 4, !tbaa !163
  %20 = load i32, ptr %5, align 4, !tbaa !58
  %21 = icmp eq i32 %19, %20
  br i1 %21, label %22, label %28

22:                                               ; preds = %14
  %23 = load ptr, ptr %6, align 8, !tbaa !162
  %24 = load i64, ptr %8, align 8, !tbaa !56
  %25 = getelementptr inbounds nuw %struct.tls12_lookup, ptr %23, i64 %24
  %26 = getelementptr inbounds nuw %struct.tls12_lookup, ptr %25, i32 0, i32 1
  %27 = load i32, ptr %26, align 4, !tbaa !165
  store i32 %27, ptr %4, align 4
  store i32 1, ptr %9, align 4
  br label %33

28:                                               ; preds = %14
  br label %29

29:                                               ; preds = %28
  %30 = load i64, ptr %8, align 8, !tbaa !56
  %31 = add i64 %30, 1
  store i64 %31, ptr %8, align 8, !tbaa !56
  br label %10, !llvm.loop !166

32:                                               ; preds = %10
  store i32 -1, ptr %4, align 4
  store i32 1, ptr %9, align 4
  br label %33

33:                                               ; preds = %32, %22
  call void @llvm.lifetime.end.p0(i64 8, ptr %8) #8
  %34 = load i32, ptr %4, align 4
  ret i32 %34
}

; Function Attrs: nounwind uwtable
define hidden i32 @tls12_add_sigandhash(ptr noundef %0, ptr noundef %1, ptr noundef %2) #0 {
  %4 = alloca ptr, align 8
  %5 = alloca ptr, align 8
  %6 = alloca ptr, align 8
  %7 = alloca i32, align 4
  %8 = alloca i32, align 4
  store ptr %0, ptr %4, align 8, !tbaa !69
  store ptr %1, ptr %5, align 8, !tbaa !128
  store ptr %2, ptr %6, align 8, !tbaa !112
  call void @llvm.lifetime.start.p0(i64 4, ptr %7) #8
  %9 = load ptr, ptr %6, align 8, !tbaa !112
  %10 = call i32 @EVP_MD_type(ptr noundef %9)
  %11 = call i32 @tls12_find_id(i32 noundef %10, ptr noundef @tls12_md, i64 noundef 4)
  store i32 %11, ptr %7, align 4, !tbaa !58
  call void @llvm.lifetime.start.p0(i64 4, ptr %8) #8
  %12 = load ptr, ptr %4, align 8, !tbaa !69
  %13 = call i32 @ssl_private_key_type(ptr noundef %12)
  %14 = call i32 @tls12_get_sigid(i32 noundef %13)
  store i32 %14, ptr %8, align 4, !tbaa !58
  %15 = load i32, ptr %7, align 4, !tbaa !58
  %16 = icmp ne i32 %15, -1
  br i1 %16, label %17, label %32

17:                                               ; preds = %3
  %18 = load i32, ptr %8, align 4, !tbaa !58
  %19 = icmp ne i32 %18, -1
  br i1 %19, label %20, label %32

20:                                               ; preds = %17
  %21 = load ptr, ptr %5, align 8, !tbaa !128
  %22 = load i32, ptr %7, align 4, !tbaa !58
  %23 = trunc i32 %22 to i8
  %24 = call i32 @CBB_add_u8(ptr noundef %21, i8 noundef zeroext %23)
  %25 = icmp ne i32 %24, 0
  br i1 %25, label %26, label %32

26:                                               ; preds = %20
  %27 = load ptr, ptr %5, align 8, !tbaa !128
  %28 = load i32, ptr %8, align 4, !tbaa !58
  %29 = trunc i32 %28 to i8
  %30 = call i32 @CBB_add_u8(ptr noundef %27, i8 noundef zeroext %29)
  %31 = icmp ne i32 %30, 0
  br label %32

32:                                               ; preds = %26, %20, %17, %3
  %33 = phi i1 [ false, %20 ], [ false, %17 ], [ false, %3 ], [ %31, %26 ]
  %34 = zext i1 %33 to i32
  call void @llvm.lifetime.end.p0(i64 4, ptr %8) #8
  call void @llvm.lifetime.end.p0(i64 4, ptr %7) #8
  ret i32 %34
}