; Function Attrs: nounwind uwtable
define hidden range(i32 0, 2) i32 @tls12_add_sigandhash(ptr noundef %0, ptr noundef %1, ptr noundef %2) local_unnamed_addr #0 {
  %4 = tail call i32 @EVP_MD_type(ptr noundef %2) #21
  br label %5

5:                                                ; preds = %12, %3
  %.09.i = phi i64 [ 0, %3 ], [ %13, %12 ]
  %6 = getelementptr inbounds nuw %struct.tls12_lookup, ptr @tls12_md, i64 %.09.i
  %7 = load i32, ptr %6, align 8, !tbaa !86
  %8 = icmp eq i32 %7, %4
  br i1 %8, label %9, label %12

9:                                                ; preds = %5
  %10 = getelementptr inbounds nuw %struct.tls12_lookup, ptr @tls12_md, i64 %.09.i, i32 1
  %11 = load i32, ptr %10, align 4, !tbaa !89
  br label %tls12_find_id.exit

12:                                               ; preds = %5
  %13 = add nuw nsw i64 %.09.i, 1
  %exitcond.not.i = icmp eq i64 %13, 4
  br i1 %exitcond.not.i, label %tls12_find_id.exit, label %5, !llvm.loop !88

tls12_find_id.exit:                               ; preds = %12, %9
  %.08.i = phi i32 [ %11, %9 ], [ -1, %12 ]
  %14 = tail call i32 @ssl_private_key_type(ptr noundef %0) #21
  br label %15

15:                                               ; preds = %19, %tls12_find_id.exit
  %.09.i.i = phi i64 [ 0, %tls12_find_id.exit ], [ %20, %19 ]
  %16 = getelementptr inbounds nuw %struct.tls12_lookup, ptr @tls12_sig, i64 %.09.i.i
  %17 = load i32, ptr %16, align 8, !tbaa !86
  %18 = icmp eq i32 %17, %14
  br i1 %18, label %tls12_get_sigid.exit, label %19

19:                                               ; preds = %15
  %20 = add nuw nsw i64 %.09.i.i, 1
  %exitcond.not.i.i = icmp eq i64 %20, 2
  br i1 %exitcond.not.i.i, label %tls12_get_sigid.exit.thread, label %15, !llvm.loop !88

tls12_get_sigid.exit:                             ; preds = %15
  %21 = getelementptr inbounds nuw %struct.tls12_lookup, ptr @tls12_sig, i64 %.09.i.i, i32 1
  %22 = load i32, ptr %21, align 4, !tbaa !89
  %23 = icmp ne i32 %.08.i, -1
  %24 = icmp ne i32 %22, -1
  %or.cond = select i1 %23, i1 %24, i1 false
  br i1 %or.cond, label %25, label %tls12_get_sigid.exit.thread

25:                                               ; preds = %tls12_get_sigid.exit
  %26 = trunc i32 %.08.i to i8
  %27 = tail call i32 @CBB_add_u8(ptr noundef %1, i8 noundef zeroext %26) #21
  %.not = icmp eq i32 %27, 0
  br i1 %.not, label %tls12_get_sigid.exit.thread, label %28

28:                                               ; preds = %25
  %29 = trunc i32 %22 to i8
  %30 = tail call i32 @CBB_add_u8(ptr noundef %1, i8 noundef zeroext %29) #21
  %31 = icmp ne i32 %30, 0
  %32 = zext i1 %31 to i32
  br label %tls12_get_sigid.exit.thread

tls12_get_sigid.exit.thread:                      ; preds = %19, %28, %25, %tls12_get_sigid.exit
  %33 = phi i32 [ 0, %25 ], [ 0, %tls12_get_sigid.exit ], [ %32, %28 ], [ 0, %19 ]
  ret i32 %33
}